; Function Attrs: mustprogress uwtable
define hidden noundef zeroext i1 @_ZNK3sat17integrity_checker18check_reinit_stackEv(ptr nocapture noundef nonnull readonly align 8 dereferenceable(8) %this) local_unnamed_addr #4 align 2 {
entry:
  %0 = load ptr, ptr %this, align 8
  %m_clauses_to_reinit = getelementptr inbounds i8, ptr %0, i64 3936
  %1 = load ptr, ptr %m_clauses_to_reinit, align 8
  %cmp.i.i = icmp eq ptr %1, null
  br i1 %cmp.i.i, label %for.end, label %_ZNK6vectorIN3sat14clause_wrapperELb0EjE3endEv.exit

_ZNK6vectorIN3sat14clause_wrapperELb0EjE3endEv.exit: ; preds = %entry
  %arrayidx.i.i = getelementptr inbounds i8, ptr %1, i64 -4
  %2 = load i32, ptr %arrayidx.i.i, align 4
  %3 = zext i32 %2 to i64
  %add.ptr.i = getelementptr inbounds %"class.sat::clause_wrapper", ptr %1, i64 %3
  %cmp.not5 = icmp eq i32 %2, 0
  br i1 %cmp.not5, label %for.end, label %for.body.lr.ph

for.body.lr.ph:                                   ; preds = %_ZNK6vectorIN3sat14clause_wrapperELb0EjE3endEv.exit
  %.b = load i1, ptr @_ZN3satL12null_literalE.0, align 4
  %4 = select i1 %.b, i32 -2, i32 0
  br label %for.body

for.body:                                         ; preds = %for.body.lr.ph, %for.inc
  %__begin1.06 = phi ptr [ %1, %for.body.lr.ph ], [ %incdec.ptr, %for.inc ]
  %m_l2_idx.i = getelementptr inbounds i8, ptr %__begin1.06, i64 8
  %5 = load i32, ptr %m_l2_idx.i, align 8
  %cmp.i.not = icmp eq i32 %5, %4
  br i1 %cmp.i.not, label %lor.lhs.false, label %for.inc

lor.lhs.false:                                    ; preds = %for.body
  %6 = load ptr, ptr %__begin1.06, align 8
  %m_reinit_stack.i = getelementptr inbounds i8, ptr %6, i64 16
  %bf.load.i = load i32, ptr %m_reinit_stack.i, align 4
  %7 = and i32 %bf.load.i, 32
  %tobool.i.not = icmp eq i32 %7, 0
  br i1 %tobool.i.not, label %if.then, label %for.inc

if.then:                                          ; preds = %lor.lhs.false
  tail call void @_Z26notify_assertion_violationPKciS0_(ptr noundef nonnull @.str, i32 noundef 189, ptr noundef nonnull @.str.29)
  tail call void @exit(i32 noundef 114) #15
  unreachable

for.inc:                                          ; preds = %for.body, %lor.lhs.false
  %incdec.ptr = getelementptr inbounds i8, ptr %__begin1.06, i64 16
  %cmp.not = icmp eq ptr %incdec.ptr, %add.ptr.i
  br i1 %cmp.not, label %for.end, label %for.body

for.end:                                          ; preds = %for.inc, %entry, %_ZNK6vectorIN3sat14clause_wrapperELb0EjE3endEv.exit
  ret i1 true
}